; Function Attrs: nounwind uwtable
define range(i32 -22, 1) i32 @mriStepInnerStepper_FreeVecs(ptr noundef %0) local_unnamed_addr #0 {
  %2 = icmp eq ptr %0, null
  br i1 %2, label %20, label %3

3:                                                ; preds = %1
  %4 = getelementptr inbounds nuw i8, ptr %0, i64 36
  %5 = load i32, ptr %4, align 4, !tbaa !196
  %6 = getelementptr inbounds nuw i8, ptr %0, i64 24
  %7 = getelementptr inbounds nuw i8, ptr %0, i64 80
  %8 = load i64, ptr %7, align 8, !tbaa !226
  %9 = getelementptr inbounds nuw i8, ptr %0, i64 96
  %10 = getelementptr inbounds nuw i8, ptr %0, i64 88
  %11 = load i64, ptr %10, align 8, !tbaa !227
  %12 = getelementptr inbounds nuw i8, ptr %0, i64 104
  tail call void @arkFreeVecArray(i32 noundef %5, ptr noundef nonnull %6, i64 noundef %8, ptr noundef nonnull %9, i64 noundef %11, ptr noundef nonnull %12) #14
  %13 = getelementptr inbounds nuw i8, ptr %0, i64 72
  %14 = load ptr, ptr %13, align 8, !tbaa !228
  %.not = icmp eq ptr %14, null
  br i1 %.not, label %16, label %15

15:                                               ; preds = %3
  tail call void @free(ptr noundef nonnull %14) #14
  store ptr null, ptr %13, align 8, !tbaa !228
  br label %16

16:                                               ; preds = %15, %3
  %17 = getelementptr inbounds nuw i8, ptr %0, i64 64
  %18 = load ptr, ptr %17, align 8, !tbaa !229
  %.not16 = icmp eq ptr %18, null
  br i1 %.not16, label %20, label %19

19:                                               ; preds = %16
  tail call void @free(ptr noundef nonnull %18) #14
  store ptr null, ptr %17, align 8, !tbaa !229
  br label %20

20:                                               ; preds = %16, %19, %1
  %.0 = phi i32 [ -22, %1 ], [ 0, %19 ], [ 0, %16 ]
  ret i32 %.0
}